; Function Attrs: mustprogress uwtable
define hidden void @_ZN2lp12int_gcd_test10reset_testEv(ptr nocapture noundef nonnull align 8 dereferenceable(148) %this) local_unnamed_addr #5 align 2 {
entry:
  %m_inserted_vars = getelementptr inbounds i8, ptr %this, i64 120
  %0 = load ptr, ptr %m_inserted_vars, align 8
  %cmp.i.i = icmp eq ptr %0, null
  br i1 %cmp.i.i, label %_ZN6vectorIjLb0EjE5resetEv.exit, label %_ZN6vectorIjLb0EjE3endEv.exit

_ZN6vectorIjLb0EjE3endEv.exit:                    ; preds = %entry
  %arrayidx.i.i = getelementptr inbounds i8, ptr %0, i64 -4
  %1 = load i32, ptr %arrayidx.i.i, align 4
  %2 = zext i32 %1 to i64
  %add.ptr.i = getelementptr inbounds i32, ptr %0, i64 %2
  %cmp.not9 = icmp eq i32 %1, 0
  br i1 %cmp.not9, label %if.then.i, label %for.body.lr.ph

for.body.lr.ph:                                   ; preds = %_ZN6vectorIjLb0EjE3endEv.exit
  %m_parities = getelementptr inbounds i8, ptr %this, i64 128
  br label %for.body

for.body:                                         ; preds = %for.body.lr.ph, %for.body
  %__begin1.010 = phi ptr [ %0, %for.body.lr.ph ], [ %incdec.ptr, %for.body ]
  %3 = load i32, ptr %__begin1.010, align 4
  %4 = load ptr, ptr %m_parities, align 8
  %idxprom.i = zext i32 %3 to i64
  %arrayidx.i = getelementptr inbounds %class.vector.101, ptr %4, i64 %idxprom.i
  tail call void @_ZN6vectorIN2lp12int_gcd_test6parityELb1EjE8pop_backEv(ptr noundef nonnull align 8 dereferenceable(8) %arrayidx.i)
  %incdec.ptr = getelementptr inbounds i8, ptr %__begin1.010, i64 4
  %cmp.not = icmp eq ptr %incdec.ptr, %add.ptr.i
  br i1 %cmp.not, label %for.end, label %for.body

for.end:                                          ; preds = %for.body
  %.pre = load ptr, ptr %m_inserted_vars, align 8
  %tobool.not.i = icmp eq ptr %.pre, null
  br i1 %tobool.not.i, label %_ZN6vectorIjLb0EjE5resetEv.exit, label %if.then.i

if.then.i:                                        ; preds = %_ZN6vectorIjLb0EjE3endEv.exit, %for.end
  %5 = phi ptr [ %.pre, %for.end ], [ %0, %_ZN6vectorIjLb0EjE3endEv.exit ]
  %arrayidx.i4 = getelementptr inbounds i8, ptr %5, i64 -4
  store i32 0, ptr %arrayidx.i4, align 4
  br label %_ZN6vectorIjLb0EjE5resetEv.exit

_ZN6vectorIjLb0EjE5resetEv.exit:                  ; preds = %entry, %for.end, %if.then.i
  %m_visited_ts = getelementptr inbounds i8, ptr %this, i64 144
  %6 = load i32, ptr %m_visited_ts, align 8
  %inc = add i32 %6, 1
  store i32 %inc, ptr %m_visited_ts, align 8
  %cmp6 = icmp eq i32 %inc, 0
  br i1 %cmp6, label %if.then, label %if.end

if.then:                                          ; preds = %_ZN6vectorIjLb0EjE5resetEv.exit
  %m_visited = getelementptr inbounds i8, ptr %this, i64 136
  %7 = load ptr, ptr %m_visited, align 8
  %tobool.not.i5 = icmp eq ptr %7, null
  br i1 %tobool.not.i5, label %_ZN6vectorIjLb0EjE5resetEv.exit8, label %if.then.i6

if.then.i6:                                       ; preds = %if.then
  %arrayidx.i7 = getelementptr inbounds i8, ptr %7, i64 -4
  store i32 0, ptr %arrayidx.i7, align 4
  %.pre11 = load i32, ptr %m_visited_ts, align 8
  %8 = add i32 %.pre11, 1
  br label %_ZN6vectorIjLb0EjE5resetEv.exit8

_ZN6vectorIjLb0EjE5resetEv.exit8:                 ; preds = %if.then, %if.then.i6
  %inc8 = phi i32 [ 1, %if.then ], [ %8, %if.then.i6 ]
  store i32 %inc8, ptr %m_visited_ts, align 8
  br label %if.end

if.end:                                           ; preds = %_ZN6vectorIjLb0EjE5resetEv.exit8, %_ZN6vectorIjLb0EjE5resetEv.exit
  ret void
}